target datalayout = "e-m:e-p270:32:32-p271:32:32-p272:64:64-i64:64-i128:128-f80:128-n8:16:32:64-S128"
target triple = "x86_64-pc-linux-gnu"

%"class.clang::QualType" = type { %"class.llvm::PointerIntPair" }
%"class.llvm::PointerIntPair" = type { %"struct.llvm::detail::PunnedPointer" }
%"struct.llvm::detail::PunnedPointer" = type { [8 x i8] }
%"class.clang::ExtQualsTypeCommonBase" = type { ptr, %"class.clang::QualType" }
%"class.clang::Type.base" = type { %"class.clang::ExtQualsTypeCommonBase", %union.anon }
%union.anon = type { %"class.clang::Type::FunctionTypeBitfields" }
%"class.clang::Type::FunctionTypeBitfields" = type { i64 }
%"class.llvm::FoldingSetBase::Node" = type { ptr }
%"class.llvm::ArrayRef.1186" = type { ptr, i64 }
%"class.clang::Type" = type { %"class.clang::ExtQualsTypeCommonBase", %union.anon, [8 x i8] }
%"class.clang::FunctionType" = type { %"class.clang::Type.base", %"class.clang::QualType" }
%"class.clang::FunctionProtoType" = type { %"class.clang::FunctionType", %"class.llvm::FoldingSetBase::Node", [8 x i8] }

; Function Attrs: mustprogress nounwind uwtable
define linkonce_odr hidden noundef i64 @_ZN4llvm15TrailingObjectsIN5clang17FunctionProtoTypeEJNS1_8QualTypeENS1_14SourceLocationENS1_12FunctionType26FunctionTypeExtraBitfieldsENS5_25FunctionTypeArmAttributesENS5_13ExceptionTypeEPNS1_4ExprEPNS1_12FunctionDeclENS5_16ExtParameterInfoENS1_10QualifiersENS1_14FunctionEffectENS1_19EffectConditionExprEEE22callNumTrailingObjectsEPKS2_NS_25trailing_objects_internal19TrailingObjectsBase13OverloadTokenIS2_EE(ptr noundef %0) #0 comdat align 2 {
  %2 = alloca ptr, align 8
  store ptr %0, ptr %2, align 8
  ret i64 1
}

; Function Attrs: mustprogress nounwind uwtable
define linkonce_odr hidden noundef ptr @_ZN4llvm15TrailingObjectsIN5clang17FunctionProtoTypeEJNS1_8QualTypeENS1_14SourceLocationENS1_12FunctionType26FunctionTypeExtraBitfieldsENS5_25FunctionTypeArmAttributesENS5_13ExceptionTypeEPNS1_4ExprEPNS1_12FunctionDeclENS5_16ExtParameterInfoENS1_10QualifiersENS1_14FunctionEffectENS1_19EffectConditionExprEEE22getTrailingObjectsImplEPKS2_NS_25trailing_objects_internal19TrailingObjectsBase13OverloadTokenIS2_EE(ptr noundef %0) #0 comdat align 2 {
  %2 = alloca ptr, align 8
  store ptr %0, ptr %2, align 8
  %3 = load ptr, ptr %2, align 8
  ret ptr %3
}

; Function Attrs: mustprogress nounwind uwtable
define linkonce_odr hidden noundef ptr @_ZN4llvm25trailing_objects_internal19TrailingObjectsImplILi8EN5clang17FunctionProtoTypeENS_15TrailingObjectsIS3_JNS2_8QualTypeENS2_14SourceLocationENS2_12FunctionType26FunctionTypeExtraBitfieldsENS7_25FunctionTypeArmAttributesENS7_13ExceptionTypeEPNS2_4ExprEPNS2_12FunctionDeclENS7_16ExtParameterInfoENS2_10QualifiersENS2_14FunctionEffectENS2_19EffectConditionExprEEEES3_JS5_S6_S8_S9_SA_SC_SE_SF_SG_SH_SI_EE22getTrailingObjectsImplEPKS3_NS0_19TrailingObjectsBase13OverloadTokenIS5_EE(ptr noundef %0) #0 comdat align 2 {
  %2 = alloca ptr, align 8
  %3 = alloca ptr, align 8
  store ptr %0, ptr %2, align 8
  %4 = load ptr, ptr %2, align 8
  %5 = call noundef ptr @_ZN4llvm15TrailingObjectsIN5clang17FunctionProtoTypeEJNS1_8QualTypeENS1_14SourceLocationENS1_12FunctionType26FunctionTypeExtraBitfieldsENS5_25FunctionTypeArmAttributesENS5_13ExceptionTypeEPNS1_4ExprEPNS1_12FunctionDeclENS5_16ExtParameterInfoENS1_10QualifiersENS1_14FunctionEffectENS1_19EffectConditionExprEEE22getTrailingObjectsImplEPKS2_NS_25trailing_objects_internal19TrailingObjectsBase13OverloadTokenIS2_EE(ptr noundef %4)
  %6 = load ptr, ptr %2, align 8
  %7 = call noundef i64 @_ZN4llvm15TrailingObjectsIN5clang17FunctionProtoTypeEJNS1_8QualTypeENS1_14SourceLocationENS1_12FunctionType26FunctionTypeExtraBitfieldsENS5_25FunctionTypeArmAttributesENS5_13ExceptionTypeEPNS1_4ExprEPNS1_12FunctionDeclENS5_16ExtParameterInfoENS1_10QualifiersENS1_14FunctionEffectENS1_19EffectConditionExprEEE22callNumTrailingObjectsEPKS2_NS_25trailing_objects_internal19TrailingObjectsBase13OverloadTokenIS2_EE(ptr noundef %6)
  %8 = getelementptr inbounds %"class.clang::FunctionProtoType", ptr %5, i64 %7
  store ptr %8, ptr %3, align 8
  %9 = load ptr, ptr %3, align 8
  ret ptr %9
}

; Function Attrs: mustprogress nounwind uwtable
define linkonce_odr hidden void @_ZN4llvm15TrailingObjectsIN5clang17FunctionProtoTypeEJNS1_8QualTypeENS1_14SourceLocationENS1_12FunctionType26FunctionTypeExtraBitfieldsENS5_25FunctionTypeArmAttributesENS5_13ExceptionTypeEPNS1_4ExprEPNS1_12FunctionDeclENS5_16ExtParameterInfoENS1_10QualifiersENS1_14FunctionEffectENS1_19EffectConditionExprEEE31verifyTrailingObjectsAssertionsEv() #0 comdat align 2 {
  ret void
}

; Function Attrs: mustprogress nounwind uwtable
define linkonce_odr hidden noundef i32 @_ZNK5clang17FunctionProtoType12getNumParamsEv(ptr noundef nonnull align 16 dereferenceable(48) %0) #0 comdat align 2 {
  %2 = alloca ptr, align 8
  store ptr %0, ptr %2, align 8
  %3 = load ptr, ptr %2, align 8
  %4 = getelementptr inbounds nuw %"class.clang::Type", ptr %3, i32 0, i32 1
  %5 = load i64, ptr %4, align 16
  %6 = lshr i64 %5, 38
  %7 = and i64 %6, 65535
  %8 = trunc i64 %7 to i32
  ret i32 %8
}

; Function Attrs: mustprogress nounwind uwtable
define linkonce_odr hidden noundef ptr @_ZNK4llvm15TrailingObjectsIN5clang17FunctionProtoTypeEJNS1_8QualTypeENS1_14SourceLocationENS1_12FunctionType26FunctionTypeExtraBitfieldsENS5_25FunctionTypeArmAttributesENS5_13ExceptionTypeEPNS1_4ExprEPNS1_12FunctionDeclENS5_16ExtParameterInfoENS1_10QualifiersENS1_14FunctionEffectENS1_19EffectConditionExprEEE18getTrailingObjectsIS3_EEPKT_v(ptr noundef nonnull align 8 dereferenceable(8) %0) #0 comdat align 2 {
  %2 = alloca ptr, align 8
  store ptr %0, ptr %2, align 8
  %3 = load ptr, ptr %2, align 8
  call void @_ZN4llvm15TrailingObjectsIN5clang17FunctionProtoTypeEJNS1_8QualTypeENS1_14SourceLocationENS1_12FunctionType26FunctionTypeExtraBitfieldsENS5_25FunctionTypeArmAttributesENS5_13ExceptionTypeEPNS1_4ExprEPNS1_12FunctionDeclENS5_16ExtParameterInfoENS1_10QualifiersENS1_14FunctionEffectENS1_19EffectConditionExprEEE31verifyTrailingObjectsAssertionsEv()
  %4 = call noundef ptr @_ZN4llvm25trailing_objects_internal19TrailingObjectsImplILi8EN5clang17FunctionProtoTypeENS_15TrailingObjectsIS3_JNS2_8QualTypeENS2_14SourceLocationENS2_12FunctionType26FunctionTypeExtraBitfieldsENS7_25FunctionTypeArmAttributesENS7_13ExceptionTypeEPNS2_4ExprEPNS2_12FunctionDeclENS7_16ExtParameterInfoENS2_10QualifiersENS2_14FunctionEffectENS2_19EffectConditionExprEEEES3_JS5_S6_S8_S9_SA_SC_SE_SF_SG_SH_SI_EE22getTrailingObjectsImplEPKS3_NS0_19TrailingObjectsBase13OverloadTokenIS5_EE(ptr noundef %3)
  ret ptr %4
}

; Function Attrs: mustprogress nounwind uwtable
define linkonce_odr hidden void @_ZN4llvm8ArrayRefIN5clang8QualTypeEEC2EPKS2_S5_(ptr noundef nonnull align 8 dereferenceable(16) %0, ptr noundef %1, ptr noundef %2) unnamed_addr #0 comdat align 2 {
  %4 = alloca ptr, align 8
  %5 = alloca ptr, align 8
  %6 = alloca ptr, align 8
  store ptr %0, ptr %4, align 8
  store ptr %1, ptr %5, align 8
  store ptr %2, ptr %6, align 8
  %7 = load ptr, ptr %4, align 8
  %8 = getelementptr inbounds nuw %"class.llvm::ArrayRef.1186", ptr %7, i32 0, i32 0
  %9 = load ptr, ptr %5, align 8
  store ptr %9, ptr %8, align 8
  %10 = getelementptr inbounds nuw %"class.llvm::ArrayRef.1186", ptr %7, i32 0, i32 1
  %11 = load ptr, ptr %6, align 8
  %12 = load ptr, ptr %5, align 8
  %13 = ptrtoint ptr %11 to i64
  %14 = ptrtoint ptr %12 to i64
  %15 = sub i64 %13, %14
  %16 = sdiv exact i64 %15, 8
  store i64 %16, ptr %10, align 8
  ret void
}

; Function Attrs: mustprogress nounwind uwtable
define linkonce_odr hidden noundef ptr @_ZNK5clang17FunctionProtoType14param_type_endEv(ptr noundef nonnull align 16 dereferenceable(48) %0) #0 comdat align 2 {
  %2 = alloca ptr, align 8
  store ptr %0, ptr %2, align 8
  %3 = load ptr, ptr %2, align 8
  %4 = call noundef ptr @_ZNK5clang17FunctionProtoType16param_type_beginEv(ptr noundef nonnull align 16 dereferenceable(48) %3)
  %5 = call noundef i32 @_ZNK5clang17FunctionProtoType12getNumParamsEv(ptr noundef nonnull align 16 dereferenceable(48) %3)
  %6 = zext i32 %5 to i64
  %7 = getelementptr inbounds %"class.clang::QualType", ptr %4, i64 %6
  ret ptr %7
}

; Function Attrs: mustprogress nounwind uwtable
define linkonce_odr hidden noundef ptr @_ZNK5clang17FunctionProtoType16param_type_beginEv(ptr noundef nonnull align 16 dereferenceable(48) %0) #0 comdat align 2 {
  %2 = alloca ptr, align 8
  store ptr %0, ptr %2, align 8
  %3 = load ptr, ptr %2, align 8
  %4 = call noundef ptr @_ZNK4llvm15TrailingObjectsIN5clang17FunctionProtoTypeEJNS1_8QualTypeENS1_14SourceLocationENS1_12FunctionType26FunctionTypeExtraBitfieldsENS5_25FunctionTypeArmAttributesENS5_13ExceptionTypeEPNS1_4ExprEPNS1_12FunctionDeclENS5_16ExtParameterInfoENS1_10QualifiersENS1_14FunctionEffectENS1_19EffectConditionExprEEE18getTrailingObjectsIS3_EEPKT_v(ptr noundef nonnull align 8 dereferenceable(8) %3)
  ret ptr %4
}

; Function Attrs: mustprogress nounwind uwtable
define linkonce_odr hidden { ptr, i64 } @_ZNK5clang17FunctionProtoType11param_typesEv(ptr noundef nonnull align 16 dereferenceable(48) %0) #0 comdat align 2 {
  %2 = alloca %"class.llvm::ArrayRef.1186", align 8
  %3 = alloca ptr, align 8
  store ptr %0, ptr %3, align 8
  %4 = load ptr, ptr %3, align 8
  %5 = call noundef ptr @_ZNK5clang17FunctionProtoType16param_type_beginEv(ptr noundef nonnull align 16 dereferenceable(48) %4)
  %6 = call noundef ptr @_ZNK5clang17FunctionProtoType14param_type_endEv(ptr noundef nonnull align 16 dereferenceable(48) %4)
  call void @_ZN4llvm8ArrayRefIN5clang8QualTypeEEC2EPKS2_S5_(ptr noundef nonnull align 8 dereferenceable(16) %2, ptr noundef %5, ptr noundef %6)
  %7 = load { ptr, i64 }, ptr %2, align 8
  ret { ptr, i64 } %7
}

; Function Attrs: mustprogress nounwind uwtable
define dso_local noundef zeroext i1 @_ZN5clang4Sema26FunctionParamTypesAreEqualEPKNS_17FunctionProtoTypeES3_Pjb(ptr noundef nonnull align 8 dereferenceable(17560) %0, ptr noundef %1, ptr noundef %2, ptr noundef %3, i1 noundef zeroext %4) #0 align 2 {
  %6 = alloca ptr, align 8
  %7 = alloca ptr, align 8
  %8 = alloca ptr, align 8
  %9 = alloca ptr, align 8
  %10 = alloca i8, align 1
  %11 = alloca %"class.llvm::ArrayRef.1186", align 8
  %12 = alloca %"class.llvm::ArrayRef.1186", align 8
  store ptr %0, ptr %6, align 8
  store ptr %1, ptr %7, align 8
  store ptr %2, ptr %8, align 8
  store ptr %3, ptr %9, align 8
  %13 = zext i1 %4 to i8
  store i8 %13, ptr %10, align 1
  %14 = load ptr, ptr %6, align 8
  %15 = load ptr, ptr %7, align 8
  %16 = call { ptr, i64 } @_ZNK5clang17FunctionProtoType11param_typesEv(ptr noundef nonnull align 16 dereferenceable(48) %15)
  %17 = getelementptr inbounds nuw { ptr, i64 }, ptr %11, i32 0, i32 0
  %18 = extractvalue { ptr, i64 } %16, 0
  store ptr %18, ptr %17, align 8
  %19 = getelementptr inbounds nuw { ptr, i64 }, ptr %11, i32 0, i32 1
  %20 = extractvalue { ptr, i64 } %16, 1
  store i64 %20, ptr %19, align 8
  %21 = load ptr, ptr %8, align 8
  %22 = call { ptr, i64 } @_ZNK5clang17FunctionProtoType11param_typesEv(ptr noundef nonnull align 16 dereferenceable(48) %21)
  %23 = getelementptr inbounds nuw { ptr, i64 }, ptr %12, i32 0, i32 0
  %24 = extractvalue { ptr, i64 } %22, 0
  store ptr %24, ptr %23, align 8
  %25 = getelementptr inbounds nuw { ptr, i64 }, ptr %12, i32 0, i32 1
  %26 = extractvalue { ptr, i64 } %22, 1
  store i64 %26, ptr %25, align 8
  %27 = load ptr, ptr %9, align 8
  %28 = load i8, ptr %10, align 1
  %29 = trunc i8 %28 to i1
  %30 = getelementptr inbounds nuw { ptr, i64 }, ptr %11, i32 0, i32 0
  %31 = load ptr, ptr %30, align 8
  %32 = getelementptr inbounds nuw { ptr, i64 }, ptr %11, i32 0, i32 1
  %33 = load i64, ptr %32, align 8
  %34 = getelementptr inbounds nuw { ptr, i64 }, ptr %12, i32 0, i32 0
  %35 = load ptr, ptr %34, align 8
  %36 = getelementptr inbounds nuw { ptr, i64 }, ptr %12, i32 0, i32 1
  %37 = load i64, ptr %36, align 8
  %38 = call noundef zeroext i1 @_ZN5clang4Sema26FunctionParamTypesAreEqualEN4llvm8ArrayRefINS_8QualTypeEEES4_Pjb(ptr noundef nonnull align 8 dereferenceable(17560) %14, ptr %31, i64 %33, ptr %35, i64 %37, ptr noundef %27, i1 noundef zeroext %29)
  ret i1 %38
}