; Function Attrs: mustprogress nounwind uwtable
define dso_local noundef zeroext i1 @_ZN5clang4Sema26FunctionParamTypesAreEqualEPKNS_17FunctionProtoTypeES3_Pjb(ptr nocapture noundef nonnull readonly align 8 dereferenceable(17560) %0, ptr noundef %1, ptr nocapture noundef readonly %2, ptr noundef %3, i1 noundef zeroext %4) local_unnamed_addr #4 align 2 {
  %6 = getelementptr inbounds i8, ptr %1, i64 48
  %7 = getelementptr inbounds nuw i8, ptr %1, i64 16
  %8 = load i64, ptr %7, align 16
  %9 = lshr i64 %8, 38
  %.idx.i = and i64 %9, 65535
  %10 = getelementptr inbounds i8, ptr %2, i64 48
  %11 = getelementptr inbounds nuw i8, ptr %2, i64 16
  %12 = load i64, ptr %11, align 16
  %13 = lshr i64 %12, 38
  %.idx.i6 = and i64 %13, 65535
  %14 = tail call noundef zeroext i1 @_ZN5clang4Sema26FunctionParamTypesAreEqualEN4llvm8ArrayRefINS_8QualTypeEEES4_Pjb(ptr noundef nonnull align 8 dereferenceable(17560) %0, ptr nonnull %6, i64 %.idx.i, ptr nonnull %10, i64 %.idx.i6, ptr noundef %3, i1 noundef zeroext %4)
  ret i1 %14
}